; Function Attrs: mustprogress uwtable
define nonnull ptr @lean_big_int_to_int(i32 noundef %0) local_unnamed_addr #0 personality ptr @__gxx_personality_v0 {
  %2 = alloca %"class.lean::mpz", align 8
  call void @llvm.lifetime.start.p0(i64 16, ptr nonnull %2) #40
  call void @_ZN4lean3mpzC1Ei(ptr noundef nonnull align 8 dereferenceable(16) %2, i32 noundef %0)
  invoke void @lean_inc_heartbeat()
          to label %.noexc unwind label %12

.noexc:                                           ; preds = %1
  %3 = call noalias ptr @mi_malloc_small(i64 noundef 24) #40
  %4 = icmp eq ptr %3, null
  br i1 %4, label %5, label %_ZL23lean_alloc_small_objectj.exit.i

5:                                                ; preds = %.noexc
  invoke void @lean_internal_panic_out_of_memory() #43
          to label %.noexc2 unwind label %12

.noexc2:                                          ; preds = %5
  unreachable

_ZL23lean_alloc_small_objectj.exit.i:             ; preds = %.noexc
  %6 = getelementptr inbounds nuw i8, ptr %3, i64 4
  %7 = load i32, ptr %6, align 4
  %8 = and i32 %7, -65536
  %9 = or disjoint i32 %8, 24
  store i32 %9, ptr %6, align 4
  %10 = getelementptr inbounds nuw i8, ptr %3, i64 8
  invoke void @_ZN4lean3mpzC1ERKS0_(ptr noundef nonnull align 8 dereferenceable(16) %10, ptr noundef nonnull align 8 dereferenceable(16) %2)
          to label %11 unwind label %12

11:                                               ; preds = %_ZL23lean_alloc_small_objectj.exit.i
  store i32 1, ptr %3, align 4, !tbaa !23
  store i32 -100663272, ptr %6, align 4
  call void @_ZN4lean3mpzD1Ev(ptr noundef nonnull align 8 dereferenceable(16) %2) #40
  call void @llvm.lifetime.end.p0(i64 16, ptr nonnull %2) #40
  ret ptr %3

12:                                               ; preds = %_ZL23lean_alloc_small_objectj.exit.i, %5, %1
  %13 = landingpad { ptr, i32 }
          cleanup
  call void @_ZN4lean3mpzD1Ev(ptr noundef nonnull align 8 dereferenceable(16) %2) #40
  call void @llvm.lifetime.end.p0(i64 16, ptr nonnull %2) #40
  resume { ptr, i32 } %13
}